(dp1
S'OriginalConfig'
p2
ccopy_reg
_reconstructor
p3
(cWMCore.Configuration
Configuration
p4
c__builtin__
object
p5
NtRp6
(dp7
S'Site'
p8
g3
(cWMCore.Configuration
ConfigSection
p9
g5
NtRp10
(dp11
S'_internal_skipChecks'
p12
I00
sS'_internal_documentation'
p13
S''
sS'_internal_settings'
p14
c__builtin__
set
p15
((lp16
S'storageSite'
p17
atRp18
sS'_internal_name'
p19
g8
sS'_internal_docstrings'
p20
(dp21
sS'_internal_children'
p22
g15
((ltRp23
sg17
S'T2_IT_Legnaro'
p24
sS'_internal_parent_ref'
p25
NsbsS'_internal_sections'
p26
(lp27
S'General'
p28
aS'JobType'
p29
aS'Data'
p30
ag8
asg28
g3
(g9
g5
NtRp31
(dp32
g12
I00
sg13
S''
sg14
g15
((lp33
S'transferOutputs'
p34
aS'workArea'
p35
aS'requestName'
p36
atRp37
sg19
g28
sg20
(dp38
sg34
I01
sg22
g15
((ltRp39
sg36
S'BToJPsiKMu_JpsiMuMu_2016_AODSIM'
p40
sg25
Nsg35
S'crab3_projects'
p41
sbsS'_internal_webapps'
p42
(lp43
sS'_internal_components'
p44
(lp45
sg30
g3
(g9
g5
NtRp46
(dp47
S'inputDataset'
p48
S'/BToJPsiKMu_JpsiMuMu_TuneCUEP8M1_13TeV-pythia8-evtgen/RunIISummer16DR80Premix-PUMoriond17_80X_mcRun2_asymptotic_2016_TrancheIV_v6-v2/AODSIM'
p49
sg12
I00
sS'unitsPerJob'
p50
I3
sg13
S''
sg14
g15
((lp51
g48
ag50
aS'publication'
p52
aS'splitting'
p53
aS'outLFNDirBase'
p54
atRp55
sg19
g30
sg53
S'FileBased'
p56
sg20
(dp57
sg22
g15
((ltRp58
sg54
S'/store/user/abragagn'
p59
sg25
Nsg52
I00
sbsg29
g3
(g9
g5
NtRp60
(dp61
S'outputFiles'
p62
(lp63
S'ntu.root'
p64
asg12
I00
sg13
S''
sg14
g15
((lp65
S'psetName'
p66
aS'pluginName'
p67
ag62
aS'allowUndistributedCMSSW'
p68
atRp69
sg19
g29
sg20
(dp70
sg67
S'Analysis'
p71
sg22
g15
((ltRp72
sg68
I01
sg66
S'cfg_MC_aod.py'
p73
sg25
NsbsbsS'voGroup'
p74
S''
sS'Server'
p75
S'cmsweb.cern.ch'
p76
sS'instance'
p77
S'prod'
p78
sS'RequestName'
p79
V180807_114211:abragagn_crab_BToJPsiKMu_JpsiMuMu_2016_AODSIM
p80
sS'voRole'
p81
S'NULL'
p82
sS'Port'
p83
S''
s.