(dp1
S'OriginalConfig'
p2
ccopy_reg
_reconstructor
p3
(cWMCore.Configuration
Configuration
p4
c__builtin__
object
p5
NtRp6
(dp7
S'Site'
p8
g3
(cWMCore.Configuration
ConfigSection
p9
g5
NtRp10
(dp11
S'_internal_skipChecks'
p12
I00
sS'_internal_documentation'
p13
S''
sS'_internal_settings'
p14
c__builtin__
set
p15
((lp16
S'storageSite'
p17
atRp18
sS'_internal_name'
p19
g8
sS'_internal_docstrings'
p20
(dp21
sS'_internal_children'
p22
g15
((ltRp23
sg17
S'T2_IT_Legnaro'
p24
sS'_internal_parent_ref'
p25
NsbsS'_internal_sections'
p26
(lp27
S'General'
p28
aS'JobType'
p29
aS'Data'
p30
ag8
asg28
g3
(g9
g5
NtRp31
(dp32
g12
I00
sg13
S''
sg14
g15
((lp33
S'transferOutputs'
p34
aS'workArea'
p35
aS'requestName'
p36
atRp37
sg19
g28
sg20
(dp38
sg34
I01
sg22
g15
((ltRp39
sg36
S'Charmonium_Run2016F-07Aug17-v1_AOD'
p40
sg25
Nsg35
S'crab3_projects'
p41
sbsS'_internal_webapps'
p42
(lp43
sS'_internal_components'
p44
(lp45
sg30
g3
(g9
g5
NtRp46
(dp47
S'inputDataset'
p48
S'/Charmonium/Run2016F-07Aug17-v1/AOD'
p49
sg12
I00
sS'unitsPerJob'
p50
I3
sg13
S''
sg14
g15
((lp51
g48
aS'publication'
p52
ag50
aS'splitting'
p53
aS'lumiMask'
p54
aS'outLFNDirBase'
p55
atRp56
sg19
g30
sg53
S'FileBased'
p57
sg20
(dp58
sg22
g15
((ltRp59
sg55
S'/store/user/abragagn'
p60
sg25
Nsg54
S'https://cms-service-dqm.web.cern.ch/cms-service-dqm/CAF/certification/Collisions16/13TeV/Final/Cert_271036-284044_13TeV_PromptReco_Collisions16_JSON.txt'
p61
sg52
I00
sbsg29
g3
(g9
g5
NtRp62
(dp63
S'outputFiles'
p64
(lp65
S'ntu.root'
p66
asg12
I00
sg13
S''
sg14
g15
((lp67
S'psetName'
p68
aS'pluginName'
p69
ag64
aS'allowUndistributedCMSSW'
p70
atRp71
sg19
g29
sg20
(dp72
sg69
S'Analysis'
p73
sg22
g15
((ltRp74
sg70
I01
sg68
S'cfg_data_aod.py'
p75
sg25
NsbsbsS'voGroup'
p76
S''
sS'Server'
p77
S'cmsweb.cern.ch'
p78
sS'instance'
p79
S'prod'
p80
sS'RequestName'
p81
V180803_084346:abragagn_crab_Charmonium_Run2016F-07Aug17-v1_AOD
p82
sS'voRole'
p83
S'NULL'
p84
sS'Port'
p85
S''
s.